; Function Attrs: nounwind sspstrong uwtable
define internal void @migration_instance_init(ptr noundef %obj) #0 {
entry:
  %call.i = tail call ptr @object_dynamic_cast_assert(ptr noundef %obj, ptr noundef nonnull @.str.3, ptr noundef nonnull @.str.50, i32 noundef 245, ptr noundef nonnull @__func__.MIGRATION_OBJ) #19
  %state = getelementptr inbounds nuw i8, ptr %call.i, i64 776
  store i32 0, ptr %state, align 8
  %mbps = getelementptr inbounds nuw i8, ptr %call.i, i64 1032
  store double -1.000000e+00, ptr %mbps, align 8
  %pages_per_second = getelementptr inbounds nuw i8, ptr %call.i, i64 488
  store double -1.000000e+00, ptr %pages_per_second, align 8
  %pause_sem = getelementptr inbounds nuw i8, ptr %call.i, i64 1232
  tail call void @qemu_sem_init(ptr noundef nonnull %pause_sem, i32 noundef 0) #19
  %error_mutex = getelementptr inbounds nuw i8, ptr %call.i, i64 1488
  tail call void @qemu_mutex_init(ptr noundef nonnull %error_mutex) #19
  %parameters = getelementptr inbounds nuw i8, ptr %call.i, i64 520
  tail call void @migrate_params_init(ptr noundef nonnull %parameters) #19
  %postcopy_pause_sem = getelementptr inbounds nuw i8, ptr %call.i, i64 1544
  tail call void @qemu_sem_init(ptr noundef nonnull %postcopy_pause_sem, i32 noundef 0) #19
  %rp_sem = getelementptr inbounds nuw i8, ptr %call.i, i64 808
  tail call void @qemu_sem_init(ptr noundef nonnull %rp_sem, i32 noundef 0) #19
  %rp_pong_acks = getelementptr inbounds nuw i8, ptr %call.i, i64 920
  tail call void @qemu_sem_init(ptr noundef nonnull %rp_pong_acks, i32 noundef 0) #19
  %rate_limit_sem = getelementptr inbounds nuw i8, ptr %call.i, i64 368
  tail call void @qemu_sem_init(ptr noundef nonnull %rate_limit_sem, i32 noundef 0) #19
  %wait_unplug_sem = getelementptr inbounds nuw i8, ptr %call.i, i64 1120
  tail call void @qemu_sem_init(ptr noundef nonnull %wait_unplug_sem, i32 noundef 0) #19
  %postcopy_qemufile_src_sem = getelementptr inbounds nuw i8, ptr %call.i, i64 200
  tail call void @qemu_sem_init(ptr noundef nonnull %postcopy_qemufile_src_sem, i32 noundef 0) #19
  %qemu_file_lock = getelementptr inbounds nuw i8, ptr %call.i, i64 320
  tail call void @qemu_mutex_init(ptr noundef nonnull %qemu_file_lock) #19
  ret void
}